; Function Attrs: mustprogress uwtable
define hidden void @_ZNK3opt15model_based_opt7displayERSo(ptr noundef nonnull readonly align 8 captures(none) dereferenceable(112) %0, ptr noundef nonnull align 8 dereferenceable(8) %1) local_unnamed_addr #3 align 2 {
  %3 = load ptr, ptr %0, align 8, !tbaa !53
  %4 = icmp eq ptr %3, null
  br i1 %4, label %.preheader, label %_ZNK6vectorIN3opt15model_based_opt3rowELb1EjE3endEv.exit

_ZNK6vectorIN3opt15model_based_opt3rowELb1EjE3endEv.exit: ; preds = %2
  %5 = getelementptr inbounds i8, ptr %3, i64 -4
  %6 = load i32, ptr %5, align 4, !tbaa !19
  %7 = zext i32 %6 to i64
  %8 = getelementptr inbounds nuw %"struct.opt::model_based_opt::row", ptr %3, i64 %7
  %.not27 = icmp eq i32 %6, 0
  br i1 %.not27, label %.preheader, label %.lr.ph

.preheader:                                       ; preds = %.lr.ph, %2, %_ZNK6vectorIN3opt15model_based_opt3rowELb1EjE3endEv.exit
  %9 = getelementptr inbounds nuw i8, ptr %0, i64 8
  br label %12

.lr.ph:                                           ; preds = %_ZNK6vectorIN3opt15model_based_opt3rowELb1EjE3endEv.exit, %.lr.ph
  %.028 = phi ptr [ %11, %.lr.ph ], [ %3, %_ZNK6vectorIN3opt15model_based_opt3rowELb1EjE3endEv.exit ]
  %10 = tail call noundef nonnull align 8 dereferenceable(8) ptr @_ZN3opt15model_based_opt7displayERSoRKNS0_3rowE(ptr noundef nonnull align 8 dereferenceable(8) %1, ptr noundef nonnull align 8 dereferenceable(120) %.028)
  %11 = getelementptr inbounds nuw i8, ptr %.028, i64 120
  %.not = icmp eq ptr %11, %8
  br i1 %.not, label %.preheader, label %.lr.ph

12:                                               ; preds = %.preheader, %._crit_edge
  %indvars.iv = phi i64 [ 0, %.preheader ], [ %indvars.iv.next, %._crit_edge ]
  %13 = load ptr, ptr %9, align 8, !tbaa !74
  %14 = icmp eq ptr %13, null
  br i1 %14, label %_ZNK6vectorI7svectorIjjELb1EjE4sizeEv.exit, label %15

15:                                               ; preds = %12
  %16 = getelementptr inbounds i8, ptr %13, i64 -4
  %17 = load i32, ptr %16, align 4, !tbaa !19
  %18 = zext i32 %17 to i64
  br label %_ZNK6vectorI7svectorIjjELb1EjE4sizeEv.exit

_ZNK6vectorI7svectorIjjELb1EjE4sizeEv.exit:       ; preds = %12, %15
  %.0.i = phi i64 [ %18, %15 ], [ 0, %12 ]
  %19 = icmp samesign ult i64 %indvars.iv, %.0.i
  br i1 %19, label %21, label %20

20:                                               ; preds = %_ZNK6vectorI7svectorIjjELb1EjE4sizeEv.exit
  ret void

21:                                               ; preds = %_ZNK6vectorI7svectorIjjELb1EjE4sizeEv.exit
  %22 = getelementptr inbounds nuw %class.svector.4, ptr %13, i64 %indvars.iv
  %23 = tail call noundef nonnull align 8 dereferenceable(8) ptr @_ZNSo9_M_insertImEERSoT_(ptr noundef nonnull align 8 dereferenceable(8) %1, i64 noundef %indvars.iv)
  %24 = tail call noundef nonnull align 8 dereferenceable(8) ptr @_ZSt16__ostream_insertIcSt11char_traitsIcEERSt13basic_ostreamIT_T0_ES6_PKS3_l(ptr noundef nonnull align 8 dereferenceable(8) %23, ptr noundef nonnull @.str.8, i64 noundef 2)
  %25 = load ptr, ptr %22, align 8, !tbaa !77
  %26 = icmp eq ptr %25, null
  br i1 %26, label %._crit_edge, label %_ZNK6vectorIjLb0EjE3endEv.exit

_ZNK6vectorIjLb0EjE3endEv.exit:                   ; preds = %21
  %27 = getelementptr inbounds i8, ptr %25, i64 -4
  %28 = load i32, ptr %27, align 4, !tbaa !19
  %29 = zext i32 %28 to i64
  %30 = getelementptr inbounds nuw i32, ptr %25, i64 %29
  %.not2529 = icmp eq i32 %28, 0
  br i1 %.not2529, label %._crit_edge, label %.lr.ph31

._crit_edge:                                      ; preds = %.lr.ph31, %21, %_ZNK6vectorIjLb0EjE3endEv.exit
  %31 = tail call noundef nonnull align 8 dereferenceable(8) ptr @_ZSt16__ostream_insertIcSt11char_traitsIcEERSt13basic_ostreamIT_T0_ES6_PKS3_l(ptr noundef nonnull align 8 dereferenceable(8) %1, ptr noundef nonnull @.str.10, i64 noundef 1)
  %indvars.iv.next = add nuw nsw i64 %indvars.iv, 1
  br label %12, !llvm.loop !174

.lr.ph31:                                         ; preds = %_ZNK6vectorIjLb0EjE3endEv.exit, %.lr.ph31
  %.02430 = phi ptr [ %36, %.lr.ph31 ], [ %25, %_ZNK6vectorIjLb0EjE3endEv.exit ]
  %32 = load i32, ptr %.02430, align 4, !tbaa !19
  %33 = zext i32 %32 to i64
  %34 = tail call noundef nonnull align 8 dereferenceable(8) ptr @_ZNSo9_M_insertImEERSoT_(ptr noundef nonnull align 8 dereferenceable(8) %1, i64 noundef %33)
  %35 = tail call noundef nonnull align 8 dereferenceable(8) ptr @_ZSt16__ostream_insertIcSt11char_traitsIcEERSt13basic_ostreamIT_T0_ES6_PKS3_l(ptr noundef nonnull align 8 dereferenceable(8) %34, ptr noundef nonnull @.str.9, i64 noundef 1)
  %36 = getelementptr inbounds nuw i8, ptr %.02430, i64 4
  %.not25 = icmp eq ptr %36, %30
  br i1 %.not25, label %._crit_edge, label %.lr.ph31
}